target datalayout = "e-m:e-p270:32:32-p271:32:32-p272:64:64-i64:64-i128:128-f80:128-n8:16:32:64-S128"
target triple = "x86_64-pc-linux-gnu"

%struct.ossl_param_st = type { ptr, i32, ptr, i64, i64 }

@.str = private unnamed_addr constant [5 x i8] c"%s: \00", align 1
@.str.1 = private unnamed_addr constant [2 x i8] c"\0A\00", align 1
@.str.2 = private unnamed_addr constant [21 x i8] c"error getting value\0A\00", align 1
@.str.3 = private unnamed_addr constant [6 x i8] c"%llu\0A\00", align 1
@.str.4 = private unnamed_addr constant [6 x i8] c"%lld\0A\00", align 1
@.str.5 = private unnamed_addr constant [4 x i8] c"%f\0A\00", align 1
@.str.6 = private unnamed_addr constant [32 x i8] c"unknown type (%u) of %zu bytes\0A\00", align 1

; Function Attrs: nounwind uwtable
define i32 @OSSL_PARAM_print_to_bio(ptr noundef %0, ptr noundef %1, i32 noundef %2) #0 {
  %4 = alloca ptr, align 8
  %5 = alloca ptr, align 8
  %6 = alloca i32, align 4
  %7 = alloca i64, align 8
  %8 = alloca i64, align 8
  %9 = alloca ptr, align 8
  %10 = alloca double, align 8
  %11 = alloca i32, align 4
  %12 = alloca i32, align 4
  store ptr %0, ptr %4, align 8, !tbaa !3
  store ptr %1, ptr %5, align 8, !tbaa !8
  store i32 %2, ptr %6, align 4, !tbaa !10
  call void @llvm.lifetime.start.p0(i64 8, ptr %7) #6
  call void @llvm.lifetime.start.p0(i64 8, ptr %8) #6
  call void @llvm.lifetime.start.p0(i64 8, ptr %9) #6
  call void @llvm.lifetime.start.p0(i64 8, ptr %10) #6
  call void @llvm.lifetime.start.p0(i64 4, ptr %11) #6
  store i32 -1, ptr %11, align 4, !tbaa !10
  call void @llvm.lifetime.start.p0(i64 4, ptr %12) #6
  br label %13

13:                                               ; preds = %154, %3
  %14 = load ptr, ptr %4, align 8, !tbaa !3
  %15 = getelementptr inbounds nuw %struct.ossl_param_st, ptr %14, i32 0, i32 0
  %16 = load ptr, ptr %15, align 8, !tbaa !12
  %17 = icmp ne ptr %16, null
  br i1 %17, label %18, label %157

18:                                               ; preds = %13
  store i32 -1, ptr %11, align 4, !tbaa !10
  %19 = load ptr, ptr %5, align 8, !tbaa !8
  %20 = load ptr, ptr %4, align 8, !tbaa !3
  %21 = getelementptr inbounds nuw %struct.ossl_param_st, ptr %20, i32 0, i32 0
  %22 = load ptr, ptr %21, align 8, !tbaa !12
  %23 = call i32 (ptr, ptr, ...) @BIO_printf(ptr noundef %19, ptr noundef @.str, ptr noundef %22)
  store i32 %23, ptr %11, align 4, !tbaa !10
  %24 = load i32, ptr %11, align 4, !tbaa !10
  %25 = icmp eq i32 %24, -1
  br i1 %25, label %26, label %27

26:                                               ; preds = %18
  br label %158

27:                                               ; preds = %18
  %28 = load i32, ptr %6, align 4, !tbaa !10
  %29 = icmp eq i32 %28, 0
  br i1 %29, label %30, label %33

30:                                               ; preds = %27
  %31 = load ptr, ptr %5, align 8, !tbaa !8
  %32 = call i32 (ptr, ptr, ...) @BIO_printf(ptr noundef %31, ptr noundef @.str.1)
  br label %154

33:                                               ; preds = %27
  %34 = load ptr, ptr %4, align 8, !tbaa !3
  %35 = getelementptr inbounds nuw %struct.ossl_param_st, ptr %34, i32 0, i32 1
  %36 = load i32, ptr %35, align 8, !tbaa !16
  switch i32 %36, label %140 [
    i32 2, label %37
    i32 1, label %67
    i32 6, label %97
    i32 4, label %107
    i32 7, label %117
    i32 5, label %117
    i32 3, label %127
  ]

37:                                               ; preds = %33
  %38 = load ptr, ptr %4, align 8, !tbaa !3
  %39 = getelementptr inbounds nuw %struct.ossl_param_st, ptr %38, i32 0, i32 3
  %40 = load i64, ptr %39, align 8, !tbaa !17
  %41 = icmp ugt i64 %40, 8
  br i1 %41, label %42, label %54

42:                                               ; preds = %37
  %43 = load ptr, ptr %4, align 8, !tbaa !3
  %44 = call i32 @OSSL_PARAM_get_BN(ptr noundef %43, ptr noundef %9)
  %45 = icmp ne i32 %44, 0
  br i1 %45, label %46, label %50

46:                                               ; preds = %42
  %47 = load ptr, ptr %5, align 8, !tbaa !8
  %48 = load ptr, ptr %9, align 8, !tbaa !18
  %49 = call i32 @BN_print(ptr noundef %47, ptr noundef %48)
  store i32 %49, ptr %11, align 4, !tbaa !10
  br label %53

50:                                               ; preds = %42
  %51 = load ptr, ptr %5, align 8, !tbaa !8
  %52 = call i32 (ptr, ptr, ...) @BIO_printf(ptr noundef %51, ptr noundef @.str.2)
  store i32 %52, ptr %11, align 4, !tbaa !10
  br label %53

53:                                               ; preds = %50, %46
  br label %66

54:                                               ; preds = %37
  %55 = load ptr, ptr %4, align 8, !tbaa !3
  %56 = call i32 @OSSL_PARAM_get_uint64(ptr noundef %55, ptr noundef %8)
  %57 = icmp ne i32 %56, 0
  br i1 %57, label %58, label %62

58:                                               ; preds = %54
  %59 = load ptr, ptr %5, align 8, !tbaa !8
  %60 = load i64, ptr %8, align 8, !tbaa !20
  %61 = call i32 (ptr, ptr, ...) @BIO_printf(ptr noundef %59, ptr noundef @.str.3, i64 noundef %60)
  store i32 %61, ptr %11, align 4, !tbaa !10
  br label %65

62:                                               ; preds = %54
  %63 = load ptr, ptr %5, align 8, !tbaa !8
  %64 = call i32 (ptr, ptr, ...) @BIO_printf(ptr noundef %63, ptr noundef @.str.2)
  store i32 %64, ptr %11, align 4, !tbaa !10
  br label %65

65:                                               ; preds = %62, %58
  br label %66

66:                                               ; preds = %65, %53
  br label %149

67:                                               ; preds = %33
  %68 = load ptr, ptr %4, align 8, !tbaa !3
  %69 = getelementptr inbounds nuw %struct.ossl_param_st, ptr %68, i32 0, i32 3
  %70 = load i64, ptr %69, align 8, !tbaa !17
  %71 = icmp ugt i64 %70, 8
  br i1 %71, label %72, label %84

72:                                               ; preds = %67
  %73 = load ptr, ptr %4, align 8, !tbaa !3
  %74 = call i32 @OSSL_PARAM_get_BN(ptr noundef %73, ptr noundef %9)
  %75 = icmp ne i32 %74, 0
  br i1 %75, label %76, label %80

76:                                               ; preds = %72
  %77 = load ptr, ptr %5, align 8, !tbaa !8
  %78 = load ptr, ptr %9, align 8, !tbaa !18
  %79 = call i32 @BN_print(ptr noundef %77, ptr noundef %78)
  store i32 %79, ptr %11, align 4, !tbaa !10
  br label %83

80:                                               ; preds = %72
  %81 = load ptr, ptr %5, align 8, !tbaa !8
  %82 = call i32 (ptr, ptr, ...) @BIO_printf(ptr noundef %81, ptr noundef @.str.2)
  store i32 %82, ptr %11, align 4, !tbaa !10
  br label %83

83:                                               ; preds = %80, %76
  br label %96

84:                                               ; preds = %67
  %85 = load ptr, ptr %4, align 8, !tbaa !3
  %86 = call i32 @OSSL_PARAM_get_int64(ptr noundef %85, ptr noundef %7)
  %87 = icmp ne i32 %86, 0
  br i1 %87, label %88, label %92

88:                                               ; preds = %84
  %89 = load ptr, ptr %5, align 8, !tbaa !8
  %90 = load i64, ptr %7, align 8, !tbaa !20
  %91 = call i32 (ptr, ptr, ...) @BIO_printf(ptr noundef %89, ptr noundef @.str.4, i64 noundef %90)
  store i32 %91, ptr %11, align 4, !tbaa !10
  br label %95

92:                                               ; preds = %84
  %93 = load ptr, ptr %5, align 8, !tbaa !8
  %94 = call i32 (ptr, ptr, ...) @BIO_printf(ptr noundef %93, ptr noundef @.str.2)
  store i32 %94, ptr %11, align 4, !tbaa !10
  br label %95

95:                                               ; preds = %92, %88
  br label %96

96:                                               ; preds = %95, %83
  br label %149

97:                                               ; preds = %33
  %98 = load ptr, ptr %5, align 8, !tbaa !8
  %99 = load ptr, ptr %4, align 8, !tbaa !3
  %100 = getelementptr inbounds nuw %struct.ossl_param_st, ptr %99, i32 0, i32 2
  %101 = load ptr, ptr %100, align 8, !tbaa !21
  %102 = load ptr, ptr %4, align 8, !tbaa !3
  %103 = getelementptr inbounds nuw %struct.ossl_param_st, ptr %102, i32 0, i32 3
  %104 = load i64, ptr %103, align 8, !tbaa !17
  %105 = trunc i64 %104 to i32
  %106 = call i32 @BIO_dump(ptr noundef %98, ptr noundef %101, i32 noundef %105)
  store i32 %106, ptr %11, align 4, !tbaa !10
  br label %149

107:                                              ; preds = %33
  %108 = load ptr, ptr %5, align 8, !tbaa !8
  %109 = load ptr, ptr %4, align 8, !tbaa !3
  %110 = getelementptr inbounds nuw %struct.ossl_param_st, ptr %109, i32 0, i32 2
  %111 = load ptr, ptr %110, align 8, !tbaa !21
  %112 = load ptr, ptr %4, align 8, !tbaa !3
  %113 = getelementptr inbounds nuw %struct.ossl_param_st, ptr %112, i32 0, i32 3
  %114 = load i64, ptr %113, align 8, !tbaa !17
  %115 = trunc i64 %114 to i32
  %116 = call i32 @BIO_dump(ptr noundef %108, ptr noundef %111, i32 noundef %115)
  store i32 %116, ptr %11, align 4, !tbaa !10
  br label %149

117:                                              ; preds = %33, %33
  %118 = load ptr, ptr %5, align 8, !tbaa !8
  %119 = load ptr, ptr %4, align 8, !tbaa !3
  %120 = getelementptr inbounds nuw %struct.ossl_param_st, ptr %119, i32 0, i32 2
  %121 = load ptr, ptr %120, align 8, !tbaa !21
  %122 = load ptr, ptr %4, align 8, !tbaa !3
  %123 = getelementptr inbounds nuw %struct.ossl_param_st, ptr %122, i32 0, i32 3
  %124 = load i64, ptr %123, align 8, !tbaa !17
  %125 = trunc i64 %124 to i32
  %126 = call i32 @BIO_dump(ptr noundef %118, ptr noundef %121, i32 noundef %125)
  store i32 %126, ptr %11, align 4, !tbaa !10
  br label %149

127:                                              ; preds = %33
  store i32 0, ptr %12, align 4, !tbaa !10
  %128 = load ptr, ptr %4, align 8, !tbaa !3
  %129 = call i32 @OSSL_PARAM_get_double(ptr noundef %128, ptr noundef %10)
  store i32 %129, ptr %12, align 4, !tbaa !10
  %130 = load i32, ptr %12, align 4, !tbaa !10
  %131 = icmp eq i32 %130, 1
  br i1 %131, label %132, label %136

132:                                              ; preds = %127
  %133 = load ptr, ptr %5, align 8, !tbaa !8
  %134 = load double, ptr %10, align 8, !tbaa !22
  %135 = call i32 (ptr, ptr, ...) @BIO_printf(ptr noundef %133, ptr noundef @.str.5, double noundef %134)
  store i32 %135, ptr %11, align 4, !tbaa !10
  br label %139

136:                                              ; preds = %127
  %137 = load ptr, ptr %5, align 8, !tbaa !8
  %138 = call i32 (ptr, ptr, ...) @BIO_printf(ptr noundef %137, ptr noundef @.str.2)
  store i32 %138, ptr %11, align 4, !tbaa !10
  br label %139

139:                                              ; preds = %136, %132
  br label %149

140:                                              ; preds = %33
  %141 = load ptr, ptr %5, align 8, !tbaa !8
  %142 = load ptr, ptr %4, align 8, !tbaa !3
  %143 = getelementptr inbounds nuw %struct.ossl_param_st, ptr %142, i32 0, i32 1
  %144 = load i32, ptr %143, align 8, !tbaa !16
  %145 = load ptr, ptr %4, align 8, !tbaa !3
  %146 = getelementptr inbounds nuw %struct.ossl_param_st, ptr %145, i32 0, i32 3
  %147 = load i64, ptr %146, align 8, !tbaa !17
  %148 = call i32 (ptr, ptr, ...) @BIO_printf(ptr noundef %141, ptr noundef @.str.6, i32 noundef %144, i64 noundef %147)
  store i32 %148, ptr %11, align 4, !tbaa !10
  br label %149

149:                                              ; preds = %140, %139, %117, %107, %97, %96, %66
  %150 = load i32, ptr %11, align 4, !tbaa !10
  %151 = icmp eq i32 %150, -1
  br i1 %151, label %152, label %153

152:                                              ; preds = %149
  br label %158

153:                                              ; preds = %149
  br label %154

154:                                              ; preds = %153, %30
  %155 = load ptr, ptr %4, align 8, !tbaa !3
  %156 = getelementptr inbounds nuw %struct.ossl_param_st, ptr %155, i32 1
  store ptr %156, ptr %4, align 8, !tbaa !3
  br label %13, !llvm.loop !24

157:                                              ; preds = %13
  br label %158

158:                                              ; preds = %157, %152, %26
  %159 = load i32, ptr %11, align 4, !tbaa !10
  %160 = icmp eq i32 %159, -1
  %161 = select i1 %160, i32 0, i32 1
  call void @llvm.lifetime.end.p0(i64 4, ptr %12) #6
  call void @llvm.lifetime.end.p0(i64 4, ptr %11) #6
  call void @llvm.lifetime.end.p0(i64 8, ptr %10) #6
  call void @llvm.lifetime.end.p0(i64 8, ptr %9) #6
  call void @llvm.lifetime.end.p0(i64 8, ptr %8) #6
  call void @llvm.lifetime.end.p0(i64 8, ptr %7) #6
  ret i32 %161
}