; Function Attrs: nounwind uwtable
define range(i32 0, 2) i32 @OSSL_PARAM_print_to_bio(ptr noundef %0, ptr noundef %1, i32 noundef %2) local_unnamed_addr #0 {
  %4 = alloca i64, align 8
  %5 = alloca i64, align 8
  %6 = alloca ptr, align 8
  %7 = alloca double, align 8
  call void @llvm.lifetime.start.p0(i64 8, ptr nonnull %4) #7
  call void @llvm.lifetime.start.p0(i64 8, ptr nonnull %5) #7
  call void @llvm.lifetime.start.p0(i64 8, ptr nonnull %6) #7
  call void @llvm.lifetime.start.p0(i64 8, ptr nonnull %7) #7
  %8 = load ptr, ptr %0, align 8, !tbaa !3
  %.not47 = icmp eq ptr %8, null
  br i1 %.not47, label %._crit_edge, label %.lr.ph

.lr.ph:                                           ; preds = %3
  %9 = icmp eq i32 %2, 0
  br i1 %9, label %.lr.ph.split.us, label %.lr.ph.split

.lr.ph.split.us:                                  ; preds = %.lr.ph, %13
  %10 = phi ptr [ %16, %13 ], [ %8, %.lr.ph ]
  %.048.us = phi ptr [ %15, %13 ], [ %0, %.lr.ph ]
  %11 = tail call i32 (ptr, ptr, ...) @BIO_printf(ptr noundef %1, ptr noundef nonnull @.str, ptr noundef nonnull %10) #7
  %12 = icmp eq i32 %11, -1
  br i1 %12, label %._crit_edge, label %13

13:                                               ; preds = %.lr.ph.split.us
  %14 = tail call i32 (ptr, ptr, ...) @BIO_printf(ptr noundef %1, ptr noundef nonnull @.str.1) #7
  %15 = getelementptr inbounds nuw i8, ptr %.048.us, i64 40
  %16 = load ptr, ptr %15, align 8, !tbaa !3
  %.not.us = icmp eq ptr %16, null
  br i1 %.not.us, label %._crit_edge, label %.lr.ph.split.us, !llvm.loop !11

.lr.ph.split:                                     ; preds = %.lr.ph, %94
  %17 = phi ptr [ %96, %94 ], [ %8, %.lr.ph ]
  %.048 = phi ptr [ %95, %94 ], [ %0, %.lr.ph ]
  %18 = call i32 (ptr, ptr, ...) @BIO_printf(ptr noundef %1, ptr noundef nonnull @.str, ptr noundef nonnull %17) #7
  %19 = icmp eq i32 %18, -1
  br i1 %19, label %._crit_edge, label %20

20:                                               ; preds = %.lr.ph.split
  %21 = getelementptr inbounds nuw i8, ptr %.048, i64 8
  %22 = load i32, ptr %21, align 8, !tbaa !13
  switch i32 %22, label %88 [
    i32 2, label %23
    i32 1, label %41
    i32 6, label %59
    i32 4, label %66
    i32 7, label %73
    i32 5, label %73
    i32 3, label %80
  ]

23:                                               ; preds = %20
  %24 = getelementptr inbounds nuw i8, ptr %.048, i64 24
  %25 = load i64, ptr %24, align 8, !tbaa !14
  %26 = icmp ugt i64 %25, 8
  br i1 %26, label %27, label %34

27:                                               ; preds = %23
  %28 = call i32 @OSSL_PARAM_get_BN(ptr noundef nonnull %.048, ptr noundef nonnull %6) #7
  %.not46 = icmp eq i32 %28, 0
  br i1 %.not46, label %32, label %29

29:                                               ; preds = %27
  %30 = load ptr, ptr %6, align 8, !tbaa !15
  %31 = call i32 @BN_print(ptr noundef %1, ptr noundef %30) #7
  br label %92

32:                                               ; preds = %27
  %33 = call i32 (ptr, ptr, ...) @BIO_printf(ptr noundef %1, ptr noundef nonnull @.str.2) #7
  br label %92

34:                                               ; preds = %23
  %35 = call i32 @OSSL_PARAM_get_uint64(ptr noundef nonnull %.048, ptr noundef nonnull %5) #7
  %.not45 = icmp eq i32 %35, 0
  br i1 %.not45, label %39, label %36

36:                                               ; preds = %34
  %37 = load i64, ptr %5, align 8, !tbaa !17
  %38 = call i32 (ptr, ptr, ...) @BIO_printf(ptr noundef %1, ptr noundef nonnull @.str.3, i64 noundef %37) #7
  br label %92

39:                                               ; preds = %34
  %40 = call i32 (ptr, ptr, ...) @BIO_printf(ptr noundef %1, ptr noundef nonnull @.str.2) #7
  br label %92

41:                                               ; preds = %20
  %42 = getelementptr inbounds nuw i8, ptr %.048, i64 24
  %43 = load i64, ptr %42, align 8, !tbaa !14
  %44 = icmp ugt i64 %43, 8
  br i1 %44, label %45, label %52

45:                                               ; preds = %41
  %46 = call i32 @OSSL_PARAM_get_BN(ptr noundef nonnull %.048, ptr noundef nonnull %6) #7
  %.not44 = icmp eq i32 %46, 0
  br i1 %.not44, label %50, label %47

47:                                               ; preds = %45
  %48 = load ptr, ptr %6, align 8, !tbaa !15
  %49 = call i32 @BN_print(ptr noundef %1, ptr noundef %48) #7
  br label %92

50:                                               ; preds = %45
  %51 = call i32 (ptr, ptr, ...) @BIO_printf(ptr noundef %1, ptr noundef nonnull @.str.2) #7
  br label %92

52:                                               ; preds = %41
  %53 = call i32 @OSSL_PARAM_get_int64(ptr noundef nonnull %.048, ptr noundef nonnull %4) #7
  %.not43 = icmp eq i32 %53, 0
  br i1 %.not43, label %57, label %54

54:                                               ; preds = %52
  %55 = load i64, ptr %4, align 8, !tbaa !17
  %56 = call i32 (ptr, ptr, ...) @BIO_printf(ptr noundef %1, ptr noundef nonnull @.str.4, i64 noundef %55) #7
  br label %92

57:                                               ; preds = %52
  %58 = call i32 (ptr, ptr, ...) @BIO_printf(ptr noundef %1, ptr noundef nonnull @.str.2) #7
  br label %92

59:                                               ; preds = %20
  %60 = getelementptr inbounds nuw i8, ptr %.048, i64 16
  %61 = load ptr, ptr %60, align 8, !tbaa !18
  %62 = getelementptr inbounds nuw i8, ptr %.048, i64 24
  %63 = load i64, ptr %62, align 8, !tbaa !14
  %64 = trunc i64 %63 to i32
  %65 = call i32 @BIO_dump(ptr noundef %1, ptr noundef %61, i32 noundef %64) #7
  br label %92

66:                                               ; preds = %20
  %67 = getelementptr inbounds nuw i8, ptr %.048, i64 16
  %68 = load ptr, ptr %67, align 8, !tbaa !18
  %69 = getelementptr inbounds nuw i8, ptr %.048, i64 24
  %70 = load i64, ptr %69, align 8, !tbaa !14
  %71 = trunc i64 %70 to i32
  %72 = call i32 @BIO_dump(ptr noundef %1, ptr noundef %68, i32 noundef %71) #7
  br label %92

73:                                               ; preds = %20, %20
  %74 = getelementptr inbounds nuw i8, ptr %.048, i64 16
  %75 = load ptr, ptr %74, align 8, !tbaa !18
  %76 = getelementptr inbounds nuw i8, ptr %.048, i64 24
  %77 = load i64, ptr %76, align 8, !tbaa !14
  %78 = trunc i64 %77 to i32
  %79 = call i32 @BIO_dump(ptr noundef %1, ptr noundef %75, i32 noundef %78) #7
  br label %92

80:                                               ; preds = %20
  %81 = call i32 @OSSL_PARAM_get_double(ptr noundef nonnull %.048, ptr noundef nonnull %7) #7
  %82 = icmp eq i32 %81, 1
  br i1 %82, label %83, label %86

83:                                               ; preds = %80
  %84 = load double, ptr %7, align 8, !tbaa !19
  %85 = call i32 (ptr, ptr, ...) @BIO_printf(ptr noundef %1, ptr noundef nonnull @.str.5, double noundef %84) #7
  br label %92

86:                                               ; preds = %80
  %87 = call i32 (ptr, ptr, ...) @BIO_printf(ptr noundef %1, ptr noundef nonnull @.str.2) #7
  br label %92

88:                                               ; preds = %20
  %89 = getelementptr inbounds nuw i8, ptr %.048, i64 24
  %90 = load i64, ptr %89, align 8, !tbaa !14
  %91 = call i32 (ptr, ptr, ...) @BIO_printf(ptr noundef %1, ptr noundef nonnull @.str.6, i32 noundef %22, i64 noundef %90) #7
  br label %92

92:                                               ; preds = %83, %86, %50, %47, %57, %54, %32, %29, %39, %36, %88, %73, %66, %59
  %.3 = phi i32 [ %91, %88 ], [ %85, %83 ], [ %87, %86 ], [ %79, %73 ], [ %72, %66 ], [ %65, %59 ], [ %49, %47 ], [ %51, %50 ], [ %56, %54 ], [ %58, %57 ], [ %31, %29 ], [ %33, %32 ], [ %38, %36 ], [ %40, %39 ]
  %93 = icmp eq i32 %.3, -1
  br i1 %93, label %._crit_edge, label %94

94:                                               ; preds = %92
  %95 = getelementptr inbounds nuw i8, ptr %.048, i64 40
  %96 = load ptr, ptr %95, align 8, !tbaa !3
  %.not = icmp eq ptr %96, null
  br i1 %.not, label %._crit_edge, label %.lr.ph.split, !llvm.loop !11

._crit_edge:                                      ; preds = %.lr.ph.split, %92, %94, %.lr.ph.split.us, %13, %3
  %.1 = phi i32 [ 0, %3 ], [ 1, %13 ], [ 0, %.lr.ph.split.us ], [ 1, %94 ], [ 0, %92 ], [ 0, %.lr.ph.split ]
  call void @llvm.lifetime.end.p0(i64 8, ptr nonnull %7) #7
  call void @llvm.lifetime.end.p0(i64 8, ptr nonnull %6) #7
  call void @llvm.lifetime.end.p0(i64 8, ptr nonnull %5) #7
  call void @llvm.lifetime.end.p0(i64 8, ptr nonnull %4) #7
  ret i32 %.1
}